target datalayout = "e-m:e-p270:32:32-p271:32:32-p272:64:64-i64:64-i128:128-f80:128-n8:16:32:64-S128"
target triple = "x86_64-pc-linux-gnu"

%"class.std::__cxx11::basic_string" = type { %"struct.std::__cxx11::basic_string<char>::_Alloc_hider", i64, %union.anon }
%"struct.std::__cxx11::basic_string<char>::_Alloc_hider" = type { ptr }
%union.anon = type { i64, [8 x i8] }
%"class.rocksdb::PlainTableFactory" = type { %"class.rocksdb::TableFactory", %"struct.rocksdb::PlainTableOptions" }
%"class.rocksdb::TableFactory" = type { %"class.rocksdb::Customizable" }
%"class.rocksdb::Customizable" = type { %"class.rocksdb::Configurable" }
%"class.rocksdb::Configurable" = type { ptr, %"class.std::vector.19" }
%"class.std::vector.19" = type { %"struct.std::_Vector_base.20" }
%"struct.std::_Vector_base.20" = type { %"struct.std::_Vector_base<rocksdb::Configurable::RegisteredOptions, std::allocator<rocksdb::Configurable::RegisteredOptions>>::_Vector_impl" }
%"struct.std::_Vector_base<rocksdb::Configurable::RegisteredOptions, std::allocator<rocksdb::Configurable::RegisteredOptions>>::_Vector_impl" = type { %"struct.std::_Vector_base<rocksdb::Configurable::RegisteredOptions, std::allocator<rocksdb::Configurable::RegisteredOptions>>::_Vector_impl_data" }
%"struct.std::_Vector_base<rocksdb::Configurable::RegisteredOptions, std::allocator<rocksdb::Configurable::RegisteredOptions>>::_Vector_impl_data" = type { ptr, ptr, ptr }
%"struct.rocksdb::PlainTableOptions" = type <{ i32, i32, double, i64, i64, i8, i8, i8, [5 x i8] }>
%"class.rocksdb::Status" = type { i8, i8, i8, i8, i8, i8, %"class.std::unique_ptr" }
%"class.std::unique_ptr" = type { %"struct.std::__uniq_ptr_data" }
%"struct.std::__uniq_ptr_data" = type { %"class.std::__uniq_ptr_impl" }
%"class.std::__uniq_ptr_impl" = type { %"class.std::tuple" }
%"class.std::tuple" = type { %"struct.std::_Tuple_impl" }
%"struct.std::_Tuple_impl" = type { %"struct.std::_Head_base.25" }
%"struct.std::_Head_base.25" = type { ptr }
%"struct.rocksdb::TableReaderOptions" = type <{ ptr, ptr, ptr, ptr, i8, i8, i8, i8, i32, i64, ptr, i64, %"class.std::__cxx11::basic_string", i64, %"struct.std::array", i8, [7 x i8], i64, i8, [7 x i8] }>
%"struct.std::array" = type { [2 x i64] }
%"class.std::__shared_ptr.75" = type { ptr, %"class.std::__shared_count" }
%"class.std::__shared_count" = type { ptr }

; Function Attrs: mustprogress nounwind uwtable
define linkonce_odr noundef ptr @_ZNKSt12__shared_ptrIKN7rocksdb14SliceTransformELN9__gnu_cxx12_Lock_policyE2EE3getEv(ptr noundef nonnull align 8 dereferenceable(16) %0) #3 comdat align 2 {
  %2 = alloca ptr, align 8
  store ptr %0, ptr %2, align 8, !tbaa !147
  %3 = load ptr, ptr %2, align 8
  %4 = getelementptr inbounds nuw %"class.std::__shared_ptr.75", ptr %3, i32 0, i32 0
  %5 = load ptr, ptr %4, align 8, !tbaa !149
  ret ptr %5
}

; Function Attrs: mustprogress uwtable
define void @_ZNK7rocksdb17PlainTableFactory14NewTableReaderERKNS_11ReadOptionsERKNS_18TableReaderOptionsEOSt10unique_ptrINS_22RandomAccessFileReaderESt14default_deleteIS8_EEmPS7_INS_11TableReaderES9_ISD_EEb(ptr dead_on_unwind noalias writable sret(%"class.rocksdb::Status") align 8 %0, ptr noundef nonnull align 8 dereferenceable(72) %1, ptr noundef nonnull align 8 dereferenceable(168) %2, ptr noundef nonnull align 8 dereferenceable(137) %3, ptr noundef nonnull align 8 dereferenceable(8) %4, i64 noundef %5, ptr noundef %6, i1 noundef zeroext %7) unnamed_addr #5 align 2 {
  %9 = alloca ptr, align 8
  %10 = alloca ptr, align 8
  %11 = alloca ptr, align 8
  %12 = alloca ptr, align 8
  %13 = alloca ptr, align 8
  %14 = alloca i64, align 8
  %15 = alloca ptr, align 8
  %16 = alloca i8, align 1
  store ptr %0, ptr %9, align 8
  store ptr %1, ptr %10, align 8, !tbaa !93
  store ptr %2, ptr %11, align 8, !tbaa !110
  store ptr %3, ptr %12, align 8, !tbaa !112
  store ptr %4, ptr %13, align 8, !tbaa !114
  store i64 %5, ptr %14, align 8, !tbaa !4
  store ptr %6, ptr %15, align 8, !tbaa !116
  %17 = zext i1 %7 to i8
  store i8 %17, ptr %16, align 1, !tbaa !104
  %18 = load ptr, ptr %10, align 8
  %19 = load ptr, ptr %12, align 8, !tbaa !112
  %20 = getelementptr inbounds nuw %"struct.rocksdb::TableReaderOptions", ptr %19, i32 0, i32 0
  %21 = load ptr, ptr %20, align 8, !tbaa !118
  %22 = load ptr, ptr %12, align 8, !tbaa !112
  %23 = getelementptr inbounds nuw %"struct.rocksdb::TableReaderOptions", ptr %22, i32 0, i32 2
  %24 = load ptr, ptr %23, align 8, !tbaa !126
  %25 = load ptr, ptr %12, align 8, !tbaa !112
  %26 = getelementptr inbounds nuw %"struct.rocksdb::TableReaderOptions", ptr %25, i32 0, i32 3
  %27 = load ptr, ptr %26, align 8, !tbaa !127
  %28 = load ptr, ptr %13, align 8, !tbaa !114
  %29 = load i64, ptr %14, align 8, !tbaa !4
  %30 = load ptr, ptr %15, align 8, !tbaa !116
  %31 = getelementptr inbounds nuw %"class.rocksdb::PlainTableFactory", ptr %18, i32 0, i32 1
  %32 = getelementptr inbounds nuw %"struct.rocksdb::PlainTableOptions", ptr %31, i32 0, i32 1
  %33 = load i32, ptr %32, align 4, !tbaa !128
  %34 = getelementptr inbounds nuw %"class.rocksdb::PlainTableFactory", ptr %18, i32 0, i32 1
  %35 = getelementptr inbounds nuw %"struct.rocksdb::PlainTableOptions", ptr %34, i32 0, i32 2
  %36 = load double, ptr %35, align 8, !tbaa !139
  %37 = getelementptr inbounds nuw %"class.rocksdb::PlainTableFactory", ptr %18, i32 0, i32 1
  %38 = getelementptr inbounds nuw %"struct.rocksdb::PlainTableOptions", ptr %37, i32 0, i32 3
  %39 = load i64, ptr %38, align 8, !tbaa !140
  %40 = getelementptr inbounds nuw %"class.rocksdb::PlainTableFactory", ptr %18, i32 0, i32 1
  %41 = getelementptr inbounds nuw %"struct.rocksdb::PlainTableOptions", ptr %40, i32 0, i32 4
  %42 = load i64, ptr %41, align 8, !tbaa !141
  %43 = getelementptr inbounds nuw %"class.rocksdb::PlainTableFactory", ptr %18, i32 0, i32 1
  %44 = getelementptr inbounds nuw %"struct.rocksdb::PlainTableOptions", ptr %43, i32 0, i32 6
  %45 = load i8, ptr %44, align 1, !tbaa !142, !range !143, !noundef !144
  %46 = trunc i8 %45 to i1
  %47 = load ptr, ptr %12, align 8, !tbaa !112
  %48 = getelementptr inbounds nuw %"struct.rocksdb::TableReaderOptions", ptr %47, i32 0, i32 5
  %49 = load i8, ptr %48, align 1, !tbaa !145, !range !143, !noundef !144
  %50 = trunc i8 %49 to i1
  %51 = load ptr, ptr %12, align 8, !tbaa !112
  %52 = getelementptr inbounds nuw %"struct.rocksdb::TableReaderOptions", ptr %51, i32 0, i32 1
  %53 = load ptr, ptr %52, align 8, !tbaa !146
  %54 = call noundef ptr @_ZNKSt12__shared_ptrIKN7rocksdb14SliceTransformELN9__gnu_cxx12_Lock_policyE2EE3getEv(ptr noundef nonnull align 8 dereferenceable(16) %53) #4
  call void @_ZN7rocksdb16PlainTableReader4OpenERKNS_16ImmutableOptionsERKNS_10EnvOptionsERKNS_21InternalKeyComparatorEOSt10unique_ptrINS_22RandomAccessFileReaderESt14default_deleteISB_EEmPSA_INS_11TableReaderESC_ISG_EEidmmbbPKNS_14SliceTransformE(ptr dead_on_unwind writable sret(%"class.rocksdb::Status") align 8 %0, ptr noundef nonnull align 8 dereferenceable(849) %21, ptr noundef nonnull align 8 dereferenceable(48) %24, ptr noundef nonnull align 8 dereferenceable(16) %27, ptr noundef nonnull align 8 dereferenceable(8) %28, i64 noundef %29, ptr noundef %30, i32 noundef %33, double noundef %36, i64 noundef %39, i64 noundef %42, i1 noundef zeroext %46, i1 noundef zeroext %50, ptr noundef %54)
  ret void
}