; Function Attrs: mustprogress uwtable
define void @_ZNK7rocksdb17PlainTableFactory14NewTableReaderERKNS_11ReadOptionsERKNS_18TableReaderOptionsEOSt10unique_ptrINS_22RandomAccessFileReaderESt14default_deleteIS8_EEmPS7_INS_11TableReaderES9_ISD_EEb(ptr dead_on_unwind noalias writable sret(%"class.rocksdb::Status") align 8 %0, ptr noundef nonnull readonly align 8 captures(none) dereferenceable(72) %1, ptr nonnull readnone align 8 captures(none) %2, ptr noundef nonnull readonly align 8 captures(none) dereferenceable(137) %3, ptr noundef nonnull align 8 dereferenceable(8) %4, i64 noundef %5, ptr noundef %6, i1 zeroext %7) unnamed_addr #4 align 2 {
  %9 = load ptr, ptr %3, align 8, !tbaa !62
  %10 = getelementptr inbounds nuw i8, ptr %3, i64 16
  %11 = load ptr, ptr %10, align 8, !tbaa !70
  %12 = getelementptr inbounds nuw i8, ptr %3, i64 24
  %13 = load ptr, ptr %12, align 8, !tbaa !71
  %14 = getelementptr inbounds nuw i8, ptr %1, i64 36
  %15 = load i32, ptr %14, align 4, !tbaa !72
  %16 = getelementptr inbounds nuw i8, ptr %1, i64 40
  %17 = load double, ptr %16, align 8, !tbaa !83
  %18 = getelementptr inbounds nuw i8, ptr %1, i64 48
  %19 = load i64, ptr %18, align 8, !tbaa !84
  %20 = getelementptr inbounds nuw i8, ptr %1, i64 56
  %21 = load i64, ptr %20, align 8, !tbaa !85
  %22 = getelementptr inbounds nuw i8, ptr %1, i64 65
  %23 = load i8, ptr %22, align 1, !tbaa !86, !range !87, !noundef !88
  %24 = trunc nuw i8 %23 to i1
  %25 = getelementptr inbounds nuw i8, ptr %3, i64 33
  %26 = load i8, ptr %25, align 1, !tbaa !89, !range !87, !noundef !88
  %27 = trunc nuw i8 %26 to i1
  %28 = getelementptr inbounds nuw i8, ptr %3, i64 8
  %29 = load ptr, ptr %28, align 8, !tbaa !90
  %30 = load ptr, ptr %29, align 8, !tbaa !91
  tail call void @_ZN7rocksdb16PlainTableReader4OpenERKNS_16ImmutableOptionsERKNS_10EnvOptionsERKNS_21InternalKeyComparatorEOSt10unique_ptrINS_22RandomAccessFileReaderESt14default_deleteISB_EEmPSA_INS_11TableReaderESC_ISG_EEidmmbbPKNS_14SliceTransformE(ptr dead_on_unwind writable sret(%"class.rocksdb::Status") align 8 %0, ptr noundef nonnull align 8 dereferenceable(849) %9, ptr noundef nonnull align 8 dereferenceable(48) %11, ptr noundef nonnull align 8 dereferenceable(16) %13, ptr noundef nonnull align 8 dereferenceable(8) %4, i64 noundef %5, ptr noundef %6, i32 noundef %15, double noundef %17, i64 noundef %19, i64 noundef %21, i1 noundef zeroext %24, i1 noundef zeroext %27, ptr noundef %30)
  ret void
}